target datalayout = "e-m:e-p270:32:32-p271:32:32-p272:64:64-i64:64-i128:128-f80:128-n8:16:32:64-S128"
target triple = "x86_64-pc-linux-gnu"

%struct.AVRational = type { i32, i32 }
%struct.V4L2Buffer = type { ptr, ptr, i32, [8 x %struct.V4L2Plane_info], i32, %struct.v4l2_buffer, [8 x %struct.v4l2_plane], i32, i32 }
%struct.V4L2Plane_info = type { i32, ptr, i64 }
%struct.v4l2_buffer = type { i32, i32, i32, i32, i32, %struct.timeval, %struct.v4l2_timecode, i32, i32, %union.anon.0, i32, i32, %union.anon.1 }
%struct.timeval = type { i64, i64 }
%struct.v4l2_timecode = type { i32, i32, i8, i8, i8, i8, [4 x i8] }
%union.anon.0 = type { i64 }
%union.anon.1 = type { i32 }
%struct.v4l2_plane = type { i32, i32, %union.anon.2, i32, [11 x i32] }
%union.anon.2 = type { i64 }
%struct.v4l2_format = type { i32, %union.anon.3 }
%union.anon.3 = type { %struct.v4l2_window, [144 x i8] }
%struct.v4l2_window = type { %struct.v4l2_rect, i32, i32, ptr, i32, ptr, i8 }
%struct.v4l2_rect = type { i32, i32, i32, i32 }
%struct.V4L2Context = type { ptr, i32, i32, i32, %struct.v4l2_format, i32, i32, %struct.AVRational, ptr, i32, i32, i32 }
%struct.V4L2m2mContext = type { [4096 x i8], i32, %struct.V4L2Context, %struct.V4L2Context, ptr, %union.sem_t, i32, i32, i32, %struct.AVPacket, ptr, ptr, ptr }
%union.sem_t = type { i64, [24 x i8] }
%struct.AVPacket = type { ptr, i64, i64, ptr, i32, i32, i32, ptr, i32, i64, i64, ptr, ptr, %struct.AVRational }

; Function Attrs: inlinehint nounwind uwtable
define internal ptr @buf_to_m2mctx(ptr noundef %0) #1 {
  %2 = alloca ptr, align 8
  %3 = alloca ptr, align 8
  %4 = alloca ptr, align 8
  %5 = alloca ptr, align 8
  %6 = alloca ptr, align 8
  store ptr %0, ptr %2, align 8, !tbaa !9
  %7 = load ptr, ptr %2, align 8, !tbaa !9
  %8 = getelementptr inbounds nuw %struct.V4L2Buffer, ptr %7, i32 0, i32 0
  %9 = load ptr, ptr %8, align 8, !tbaa !32
  %10 = getelementptr inbounds nuw %struct.V4L2Context, ptr %9, i32 0, i32 1
  %11 = load i32, ptr %10, align 8, !tbaa !103
  %12 = icmp eq i32 %11, 2
  br i1 %12, label %62, label %13

13:                                               ; preds = %1
  %14 = load ptr, ptr %2, align 8, !tbaa !9
  %15 = getelementptr inbounds nuw %struct.V4L2Buffer, ptr %14, i32 0, i32 0
  %16 = load ptr, ptr %15, align 8, !tbaa !32
  %17 = getelementptr inbounds nuw %struct.V4L2Context, ptr %16, i32 0, i32 1
  %18 = load i32, ptr %17, align 8, !tbaa !103
  %19 = icmp eq i32 %18, 10
  br i1 %19, label %62, label %20

20:                                               ; preds = %13
  %21 = load ptr, ptr %2, align 8, !tbaa !9
  %22 = getelementptr inbounds nuw %struct.V4L2Buffer, ptr %21, i32 0, i32 0
  %23 = load ptr, ptr %22, align 8, !tbaa !32
  %24 = getelementptr inbounds nuw %struct.V4L2Context, ptr %23, i32 0, i32 1
  %25 = load i32, ptr %24, align 8, !tbaa !103
  %26 = icmp eq i32 %25, 3
  br i1 %26, label %62, label %27

27:                                               ; preds = %20
  %28 = load ptr, ptr %2, align 8, !tbaa !9
  %29 = getelementptr inbounds nuw %struct.V4L2Buffer, ptr %28, i32 0, i32 0
  %30 = load ptr, ptr %29, align 8, !tbaa !32
  %31 = getelementptr inbounds nuw %struct.V4L2Context, ptr %30, i32 0, i32 1
  %32 = load i32, ptr %31, align 8, !tbaa !103
  %33 = icmp eq i32 %32, 8
  br i1 %33, label %62, label %34

34:                                               ; preds = %27
  %35 = load ptr, ptr %2, align 8, !tbaa !9
  %36 = getelementptr inbounds nuw %struct.V4L2Buffer, ptr %35, i32 0, i32 0
  %37 = load ptr, ptr %36, align 8, !tbaa !32
  %38 = getelementptr inbounds nuw %struct.V4L2Context, ptr %37, i32 0, i32 1
  %39 = load i32, ptr %38, align 8, !tbaa !103
  %40 = icmp eq i32 %39, 5
  br i1 %40, label %62, label %41

41:                                               ; preds = %34
  %42 = load ptr, ptr %2, align 8, !tbaa !9
  %43 = getelementptr inbounds nuw %struct.V4L2Buffer, ptr %42, i32 0, i32 0
  %44 = load ptr, ptr %43, align 8, !tbaa !32
  %45 = getelementptr inbounds nuw %struct.V4L2Context, ptr %44, i32 0, i32 1
  %46 = load i32, ptr %45, align 8, !tbaa !103
  %47 = icmp eq i32 %46, 7
  br i1 %47, label %62, label %48

48:                                               ; preds = %41
  %49 = load ptr, ptr %2, align 8, !tbaa !9
  %50 = getelementptr inbounds nuw %struct.V4L2Buffer, ptr %49, i32 0, i32 0
  %51 = load ptr, ptr %50, align 8, !tbaa !32
  %52 = getelementptr inbounds nuw %struct.V4L2Context, ptr %51, i32 0, i32 1
  %53 = load i32, ptr %52, align 8, !tbaa !103
  %54 = icmp eq i32 %53, 12
  br i1 %54, label %62, label %55

55:                                               ; preds = %48
  %56 = load ptr, ptr %2, align 8, !tbaa !9
  %57 = getelementptr inbounds nuw %struct.V4L2Buffer, ptr %56, i32 0, i32 0
  %58 = load ptr, ptr %57, align 8, !tbaa !32
  %59 = getelementptr inbounds nuw %struct.V4L2Context, ptr %58, i32 0, i32 1
  %60 = load i32, ptr %59, align 8, !tbaa !103
  %61 = icmp eq i32 %60, 14
  br i1 %61, label %62, label %69

62:                                               ; preds = %55, %48, %41, %34, %27, %20, %13, %1
  call void @llvm.lifetime.start.p0(i64 8, ptr %3) #8
  %63 = load ptr, ptr %2, align 8, !tbaa !9
  %64 = getelementptr inbounds nuw %struct.V4L2Buffer, ptr %63, i32 0, i32 0
  %65 = load ptr, ptr %64, align 8, !tbaa !32
  store ptr %65, ptr %3, align 8, !tbaa !101
  %66 = load ptr, ptr %3, align 8, !tbaa !101
  %67 = getelementptr inbounds i8, ptr %66, i64 -4376
  store ptr %67, ptr %4, align 8, !tbaa !109
  call void @llvm.lifetime.end.p0(i64 8, ptr %3) #8
  %68 = load ptr, ptr %4, align 8, !tbaa !109
  br label %76

69:                                               ; preds = %55
  call void @llvm.lifetime.start.p0(i64 8, ptr %5) #8
  %70 = load ptr, ptr %2, align 8, !tbaa !9
  %71 = getelementptr inbounds nuw %struct.V4L2Buffer, ptr %70, i32 0, i32 0
  %72 = load ptr, ptr %71, align 8, !tbaa !32
  store ptr %72, ptr %5, align 8, !tbaa !101
  %73 = load ptr, ptr %5, align 8, !tbaa !101
  %74 = getelementptr inbounds i8, ptr %73, i64 -4104
  store ptr %74, ptr %6, align 8, !tbaa !109
  call void @llvm.lifetime.end.p0(i64 8, ptr %5) #8
  %75 = load ptr, ptr %6, align 8, !tbaa !109
  br label %76

76:                                               ; preds = %69, %62
  %77 = phi ptr [ %68, %62 ], [ %75, %69 ]
  ret ptr %77
}

; Function Attrs: nounwind uwtable
define i32 @ff_v4l2_buffer_enqueue(ptr noundef %0) #0 {
  %2 = alloca i32, align 4
  %3 = alloca ptr, align 8
  %4 = alloca i32, align 4
  %5 = alloca i32, align 4
  store ptr %0, ptr %3, align 8, !tbaa !9
  call void @llvm.lifetime.start.p0(i64 4, ptr %4) #8
  %6 = load ptr, ptr %3, align 8, !tbaa !9
  %7 = getelementptr inbounds nuw %struct.V4L2Buffer, ptr %6, i32 0, i32 7
  %8 = load i32, ptr %7, align 8, !tbaa !98
  %9 = load ptr, ptr %3, align 8, !tbaa !9
  %10 = getelementptr inbounds nuw %struct.V4L2Buffer, ptr %9, i32 0, i32 5
  %11 = getelementptr inbounds nuw %struct.v4l2_buffer, ptr %10, i32 0, i32 3
  store i32 %8, ptr %11, align 4, !tbaa !58
  %12 = load ptr, ptr %3, align 8, !tbaa !9
  %13 = call ptr @buf_to_m2mctx(ptr noundef %12)
  %14 = getelementptr inbounds nuw %struct.V4L2m2mContext, ptr %13, i32 0, i32 1
  %15 = load i32, ptr %14, align 8, !tbaa !105
  %16 = load ptr, ptr %3, align 8, !tbaa !9
  %17 = getelementptr inbounds nuw %struct.V4L2Buffer, ptr %16, i32 0, i32 5
  %18 = call i32 (i32, i64, ...) @ioctl(i32 noundef %15, i64 noundef 3227014671, ptr noundef %17) #8
  store i32 %18, ptr %4, align 4, !tbaa !34
  %19 = load i32, ptr %4, align 4, !tbaa !34
  %20 = icmp slt i32 %19, 0
  br i1 %20, label %21, label %25

21:                                               ; preds = %1
  %22 = call ptr @__errno_location() #9
  %23 = load i32, ptr %22, align 4, !tbaa !34
  %24 = sub nsw i32 0, %23
  store i32 %24, ptr %2, align 4
  store i32 1, ptr %5, align 4
  br label %28

25:                                               ; preds = %1
  %26 = load ptr, ptr %3, align 8, !tbaa !9
  %27 = getelementptr inbounds nuw %struct.V4L2Buffer, ptr %26, i32 0, i32 8
  store i32 1, ptr %27, align 4, !tbaa !108
  store i32 0, ptr %2, align 4
  store i32 1, ptr %5, align 4
  br label %28

28:                                               ; preds = %25, %21
  call void @llvm.lifetime.end.p0(i64 4, ptr %4) #8
  %29 = load i32, ptr %2, align 4
  ret i32 %29
}