; Function Attrs: nounwind uwtable
define range(i32 -2147483647, -2147483648) i32 @ff_v4l2_buffer_enqueue(ptr noundef initializes((236, 240)) %0) local_unnamed_addr #0 {
  %2 = getelementptr inbounds nuw i8, ptr %0, i64 824
  %3 = load i32, ptr %2, align 8, !tbaa !105
  %4 = getelementptr inbounds nuw i8, ptr %0, i64 224
  %5 = getelementptr inbounds nuw i8, ptr %0, i64 236
  store i32 %3, ptr %5, align 4, !tbaa !86
  %.val = load ptr, ptr %0, align 8, !tbaa !19
  %6 = getelementptr inbounds nuw i8, ptr %.val, i64 8
  %7 = load i32, ptr %6, align 8, !tbaa !26
  %switch.tableidx = add i32 %7, -2
  %8 = icmp ult i32 %switch.tableidx, 13
  br i1 %8, label %switch.lookup, label %buf_to_m2mctx.exit

switch.lookup:                                    ; preds = %1
  %9 = zext nneg i32 %switch.tableidx to i64
  %switch.gep = getelementptr inbounds nuw [13 x i64], ptr @switch.table.v4l2_free_buffer.16, i64 0, i64 %9
  %switch.load = load i64, ptr %switch.gep, align 8
  br label %buf_to_m2mctx.exit

buf_to_m2mctx.exit:                               ; preds = %1, %switch.lookup
  %.sink.i = phi i64 [ %switch.load, %switch.lookup ], [ -4104, %1 ]
  %10 = getelementptr inbounds i8, ptr %.val, i64 %.sink.i
  %11 = getelementptr inbounds nuw i8, ptr %10, i64 4096
  %12 = load i32, ptr %11, align 8, !tbaa !108
  %13 = tail call i32 (i32, i64, ...) @ioctl(i32 noundef %12, i64 noundef 3227014671, ptr noundef nonnull %4) #8
  %14 = icmp slt i32 %13, 0
  br i1 %14, label %15, label %19

15:                                               ; preds = %buf_to_m2mctx.exit
  %16 = tail call ptr @__errno_location() #7
  %17 = load i32, ptr %16, align 4, !tbaa !59
  %18 = sub nsw i32 0, %17
  br label %21

19:                                               ; preds = %buf_to_m2mctx.exit
  %20 = getelementptr inbounds nuw i8, ptr %0, i64 828
  store i32 1, ptr %20, align 4, !tbaa !82
  br label %21

21:                                               ; preds = %19, %15
  %.0 = phi i32 [ %18, %15 ], [ 0, %19 ]
  ret i32 %.0
}